target datalayout = "e-m:e-p270:32:32-p271:32:32-p272:64:64-i64:64-i128:128-f80:128-n8:16:32:64-S128"
target triple = "x86_64-pc-linux-gnu"

%union.pthread_mutex_t = type { %struct.__pthread_mutex_s }
%struct.__pthread_mutex_s = type { i32, i32, i32, i32, i32, i16, i16, %struct.__pthread_internal_list }
%struct.__pthread_internal_list = type { ptr, ptr }
%struct.job_record = type { i32, ptr, ptr, ptr, ptr, i16, i32, i32, i32, ptr, i32, ptr, ptr, i16, ptr, double, i64, ptr, ptr, ptr, ptr, ptr, ptr, i32, ptr, i32, i64, i64, i32, i32, ptr, i16, i64, i64, i8, i32, ptr, ptr, ptr, ptr, ptr, ptr, ptr, ptr, i32, ptr, ptr, i32, ptr, i32, ptr, i32, ptr, i32, ptr, ptr, ptr, ptr, ptr, ptr, i32, i16, i64, ptr, ptr, ptr, ptr, %struct.acct_policy_limit_set_t, i16, ptr, ptr, ptr, ptr, ptr, i32, ptr, ptr, ptr, ptr, ptr, i32, i32, ptr, ptr, ptr, i16, ptr, ptr, i8, ptr, ptr, i64, i64, i8, i32, i32, i8, i32, ptr, i32, i64, i32, ptr, ptr, ptr, i8, i16, i64, i32, ptr, ptr, ptr, ptr, ptr, i16, i32, ptr, ptr, ptr, ptr, i32, ptr, i32, i16, i64, ptr, i32, i32, ptr, i64, ptr, ptr, i64, i32, i32, i64, i32, i32, ptr, ptr, ptr, ptr, ptr, ptr, ptr, ptr, ptr, ptr, ptr, ptr, i32, ptr, i16, i16, i16, i16, ptr, i32, i32, i8, i64 }
%struct.acct_policy_limit_set_t = type { i16, i16, ptr }
%struct.job_fed_details_t = type { i32, ptr, i64, ptr, i64, ptr }
%struct.slurmdb_cluster_rec = type { ptr, i16, i64, %struct.sockaddr_storage, ptr, i32, i16, ptr, i16, %struct.slurmdb_cluster_fed_t, i32, %union.pthread_mutex_t, ptr, ptr, ptr, i16, ptr, ptr }
%struct.sockaddr_storage = type { i16, [118 x i8], i64 }
%struct.slurmdb_cluster_fed_t = type { ptr, i32, ptr, ptr, ptr, i32, i8, i8 }

@fed_mgr_fed_rec = dso_local global ptr null, align 8
@fed_mgr_cluster_rec = dso_local global ptr null, align 8
@.str.65 = private unnamed_addr constant [26 x i8] c"update_job: not a fed job\00", align 1
@.str.66 = private unnamed_addr constant [71 x i8] c"update_job: setting Clusters on a non-active federated cluster for %pJ\00", align 1
@.str.67 = private unnamed_addr constant [41 x i8] c"update_job: invalid Clusters for %pJ: %s\00", align 1
@.str.68 = private unnamed_addr constant [37 x i8] c"update_job: cleared Clusters for %pJ\00", align 1
@.str.183 = private unnamed_addr constant [28 x i8] c"job %pJ not a federated job\00", align 1

; Function Attrs: nounwind uwtable
define dso_local i32 @fed_mgr_get_cluster_id(i32 noundef %0) #0 {
  %2 = alloca i32, align 4
  store i32 %0, ptr %2, align 4
  %3 = load i32, ptr %2, align 4
  %4 = lshr i32 %3, 26
  ret i32 %4
}

; Function Attrs: nounwind uwtable
define dso_local i32 @fed_mgr_is_origin_job(ptr noundef %0) #0 {
  %2 = alloca i32, align 4
  %3 = alloca ptr, align 8
  %4 = alloca i32, align 4
  %5 = alloca i32, align 4
  store ptr %0, ptr %3, align 8
  call void @llvm.lifetime.start.p0(i64 4, ptr %4) #9
  %6 = load ptr, ptr %3, align 8
  %7 = call i32 @_is_fed_job(ptr noundef %6, ptr noundef %4)
  %8 = icmp ne i32 %7, 0
  br i1 %8, label %10, label %9

9:                                                ; preds = %1
  store i32 1, ptr %2, align 4
  store i32 1, ptr %5, align 4
  br label %19

10:                                               ; preds = %1
  %11 = load ptr, ptr @fed_mgr_cluster_rec, align 8
  %12 = getelementptr inbounds nuw %struct.slurmdb_cluster_rec, ptr %11, i32 0, i32 9
  %13 = getelementptr inbounds nuw %struct.slurmdb_cluster_fed_t, ptr %12, i32 0, i32 1
  %14 = load i32, ptr %13, align 8
  %15 = load i32, ptr %4, align 4
  %16 = icmp ne i32 %14, %15
  br i1 %16, label %17, label %18

17:                                               ; preds = %10
  store i32 0, ptr %2, align 4
  store i32 1, ptr %5, align 4
  br label %19

18:                                               ; preds = %10
  store i32 1, ptr %2, align 4
  store i32 1, ptr %5, align 4
  br label %19

19:                                               ; preds = %18, %17, %9
  call void @llvm.lifetime.end.p0(i64 4, ptr %4) #9
  %20 = load i32, ptr %2, align 4
  ret i32 %20
}

; Function Attrs: nounwind uwtable
define internal i32 @_is_fed_job(ptr noundef %0, ptr noundef %1) #0 {
  %3 = alloca i32, align 4
  %4 = alloca ptr, align 8
  %5 = alloca ptr, align 8
  store ptr %0, ptr %4, align 8
  store ptr %1, ptr %5, align 8
  %6 = load ptr, ptr @fed_mgr_cluster_rec, align 8
  %7 = icmp ne ptr %6, null
  br i1 %7, label %9, label %8

8:                                                ; preds = %2
  store i32 0, ptr %3, align 4
  br label %32

9:                                                ; preds = %2
  %10 = load ptr, ptr %4, align 8
  %11 = getelementptr inbounds nuw %struct.job_record, ptr %10, i32 0, i32 39
  %12 = load ptr, ptr %11, align 8
  %13 = icmp ne ptr %12, null
  br i1 %13, label %14, label %21

14:                                               ; preds = %9
  %15 = load ptr, ptr %4, align 8
  %16 = getelementptr inbounds nuw %struct.job_record, ptr %15, i32 0, i32 53
  %17 = load i32, ptr %16, align 8
  %18 = call i32 @fed_mgr_get_cluster_id(i32 noundef %17)
  %19 = load ptr, ptr %5, align 8
  store i32 %18, ptr %19, align 4
  %20 = icmp ne i32 %18, 0
  br i1 %20, label %31, label %21

21:                                               ; preds = %14, %9
  br label %22

22:                                               ; preds = %21
  br label %23

23:                                               ; preds = %22
  %24 = call i32 @get_log_level()
  %25 = icmp sge i32 %24, 6
  br i1 %25, label %26, label %28

26:                                               ; preds = %23
  %27 = load ptr, ptr %4, align 8
  call void (i32, ptr, ...) @log_var(i32 noundef 6, ptr noundef @.str.183, ptr noundef %27)
  br label %28

28:                                               ; preds = %26, %23
  br label %29

29:                                               ; preds = %28
  br label %30

30:                                               ; preds = %29
  store i32 0, ptr %3, align 4
  br label %32

31:                                               ; preds = %14
  store i32 1, ptr %3, align 4
  br label %32

32:                                               ; preds = %31, %30, %8
  %33 = load i32, ptr %3, align 4
  ret i32 %33
}

; Function Attrs: nounwind uwtable
define dso_local i32 @fed_mgr_update_job_clusters(ptr noundef %0, ptr noundef %1) #0 {
  %3 = alloca ptr, align 8
  %4 = alloca ptr, align 8
  %5 = alloca i32, align 4
  %6 = alloca i32, align 4
  store ptr %0, ptr %3, align 8
  store ptr %1, ptr %4, align 8
  call void @llvm.lifetime.start.p0(i64 4, ptr %5) #9
  store i32 0, ptr %5, align 4
  call void @llvm.lifetime.start.p0(i64 4, ptr %6) #9
  %7 = load ptr, ptr %3, align 8
  %8 = call i32 @_is_fed_job(ptr noundef %7, ptr noundef %6)
  %9 = icmp ne i32 %8, 0
  br i1 %9, label %11, label %10

10:                                               ; preds = %2
  call void (ptr, ...) @sched_info(ptr noundef @.str.65)
  store i32 -1, ptr %5, align 4
  br label %67

11:                                               ; preds = %2
  %12 = load ptr, ptr %3, align 8
  %13 = getelementptr inbounds nuw %struct.job_record, ptr %12, i32 0, i32 60
  %14 = load i32, ptr %13, align 8
  %15 = and i32 %14, 255
  %16 = icmp eq i32 %15, 0
  br i1 %16, label %17, label %24

17:                                               ; preds = %11
  %18 = load ptr, ptr %3, align 8
  %19 = getelementptr inbounds nuw %struct.job_record, ptr %18, i32 0, i32 39
  %20 = load ptr, ptr %19, align 8
  %21 = getelementptr inbounds nuw %struct.job_fed_details_t, ptr %20, i32 0, i32 0
  %22 = load i32, ptr %21, align 8
  %23 = icmp ne i32 %22, 0
  br i1 %23, label %24, label %25

24:                                               ; preds = %17, %11
  store i32 2073, ptr %5, align 4
  br label %66

25:                                               ; preds = %17
  %26 = load ptr, ptr @fed_mgr_fed_rec, align 8
  %27 = icmp ne ptr %26, null
  br i1 %27, label %30, label %28

28:                                               ; preds = %25
  %29 = load ptr, ptr %3, align 8
  call void (ptr, ...) @sched_info(ptr noundef @.str.66, ptr noundef %29)
  store i32 7103, ptr %5, align 4
  br label %65

30:                                               ; preds = %25
  %31 = load ptr, ptr %4, align 8
  %32 = call i32 @_validate_cluster_names(ptr noundef %31, ptr noundef null)
  %33 = icmp ne i32 %32, 0
  br i1 %33, label %34, label %37

34:                                               ; preds = %30
  %35 = load ptr, ptr %3, align 8
  %36 = load ptr, ptr %4, align 8
  call void (ptr, ...) @sched_info(ptr noundef @.str.67, ptr noundef %35, ptr noundef %36)
  store i32 7104, ptr %5, align 4
  br label %64

37:                                               ; preds = %30
  %38 = load ptr, ptr %3, align 8
  %39 = getelementptr inbounds nuw %struct.job_record, ptr %38, i32 0, i32 19
  call void @slurm_xfree(ptr noundef %39)
  %40 = load ptr, ptr %4, align 8
  %41 = getelementptr inbounds i8, ptr %40, i64 0
  %42 = load i8, ptr %41, align 1
  %43 = sext i8 %42 to i32
  %44 = icmp eq i32 %43, 0
  br i1 %44, label %45, label %47

45:                                               ; preds = %37
  %46 = load ptr, ptr %3, align 8
  call void (ptr, ...) @sched_info(ptr noundef @.str.68, ptr noundef %46)
  br label %57

47:                                               ; preds = %37
  %48 = load ptr, ptr %4, align 8
  %49 = load i8, ptr %48, align 1
  %50 = icmp ne i8 %49, 0
  br i1 %50, label %51, label %56

51:                                               ; preds = %47
  %52 = load ptr, ptr %4, align 8
  %53 = call ptr @xstrdup(ptr noundef %52)
  %54 = load ptr, ptr %3, align 8
  %55 = getelementptr inbounds nuw %struct.job_record, ptr %54, i32 0, i32 19
  store ptr %53, ptr %55, align 8
  br label %56

56:                                               ; preds = %51, %47
  br label %57

57:                                               ; preds = %56, %45
  %58 = load ptr, ptr %3, align 8
  %59 = call i32 @fed_mgr_is_origin_job(ptr noundef %58)
  %60 = icmp ne i32 %59, 0
  br i1 %60, label %61, label %63

61:                                               ; preds = %57
  %62 = load ptr, ptr %3, align 8
  call void @_add_remove_sibling_jobs(ptr noundef %62)
  br label %63

63:                                               ; preds = %61, %57
  br label %64

64:                                               ; preds = %63, %34
  br label %65

65:                                               ; preds = %64, %28
  br label %66

66:                                               ; preds = %65, %24
  br label %67

67:                                               ; preds = %66, %10
  %68 = load i32, ptr %5, align 4
  call void @llvm.lifetime.end.p0(i64 4, ptr %6) #9
  call void @llvm.lifetime.end.p0(i64 4, ptr %5) #9
  ret i32 %68
}