; Function Attrs: nounwind uwtable
define dso_local range(i32 -1, 7105) i32 @fed_mgr_update_job_clusters(ptr noundef %0, ptr noundef %1) local_unnamed_addr #0 {
  %3 = load ptr, ptr @fed_mgr_cluster_rec, align 8
  %.not.i = icmp eq ptr %3, null
  br i1 %.not.i, label %14, label %4

4:                                                ; preds = %2
  %5 = getelementptr inbounds nuw i8, ptr %0, i64 280
  %6 = load ptr, ptr %5, align 8
  %.not4.i = icmp eq ptr %6, null
  br i1 %.not4.i, label %10, label %7

7:                                                ; preds = %4
  %8 = getelementptr inbounds nuw i8, ptr %0, i64 392
  %9 = load i32, ptr %8, align 8
  %.not5.i = icmp ult i32 %9, 67108864
  br i1 %.not5.i, label %10, label %_is_fed_job.exit

10:                                               ; preds = %7, %4
  %11 = tail call i32 @get_log_level() #16
  %12 = icmp sgt i32 %11, 5
  br i1 %12, label %13, label %14

13:                                               ; preds = %10
  tail call void (i32, ptr, ...) @log_var(i32 noundef 6, ptr noundef nonnull @.str.183, ptr noundef nonnull %0) #16
  br label %14

14:                                               ; preds = %2, %13, %10
  tail call void (ptr, ...) @sched_info(ptr noundef nonnull @.str.65) #16
  br label %47

_is_fed_job.exit:                                 ; preds = %7
  %15 = getelementptr inbounds nuw i8, ptr %0, i64 448
  %16 = load i32, ptr %15, align 8
  %17 = and i32 %16, 255
  %18 = icmp eq i32 %17, 0
  br i1 %18, label %19, label %47

19:                                               ; preds = %_is_fed_job.exit
  %20 = load i32, ptr %6, align 8
  %.not15 = icmp eq i32 %20, 0
  br i1 %.not15, label %21, label %47

21:                                               ; preds = %19
  %22 = load ptr, ptr @fed_mgr_fed_rec, align 8
  %.not16 = icmp eq ptr %22, null
  br i1 %.not16, label %23, label %24

23:                                               ; preds = %21
  tail call void (ptr, ...) @sched_info(ptr noundef nonnull @.str.66, ptr noundef nonnull %0) #16
  br label %47

24:                                               ; preds = %21
  %25 = tail call fastcc i32 @_validate_cluster_names(ptr noundef %1, ptr noundef null)
  %.not17 = icmp eq i32 %25, 0
  br i1 %.not17, label %27, label %26

26:                                               ; preds = %24
  tail call void (ptr, ...) @sched_info(ptr noundef nonnull @.str.67, ptr noundef nonnull %0, ptr noundef %1) #16
  br label %47

27:                                               ; preds = %24
  %28 = getelementptr inbounds nuw i8, ptr %0, i64 136
  tail call void @slurm_xfree(ptr noundef nonnull %28) #16
  %29 = load i8, ptr %1, align 1
  %30 = icmp eq i8 %29, 0
  br i1 %30, label %31, label %32

31:                                               ; preds = %27
  tail call void (ptr, ...) @sched_info(ptr noundef nonnull @.str.68, ptr noundef nonnull %0) #16
  br label %34

32:                                               ; preds = %27
  %33 = tail call ptr @xstrdup(ptr noundef nonnull %1) #16
  store ptr %33, ptr %28, align 8
  br label %34

34:                                               ; preds = %32, %31
  %35 = load ptr, ptr @fed_mgr_cluster_rec, align 8
  %.not.i.i = icmp eq ptr %35, null
  br i1 %.not.i.i, label %fed_mgr_is_origin_job.exit.thread, label %36

36:                                               ; preds = %34
  %37 = load ptr, ptr %5, align 8
  %.not4.i.i = icmp eq ptr %37, null
  br i1 %.not4.i.i, label %40, label %38

38:                                               ; preds = %36
  %39 = load i32, ptr %8, align 8
  %.not5.i.i = icmp ult i32 %39, 67108864
  br i1 %.not5.i.i, label %40, label %fed_mgr_is_origin_job.exit

40:                                               ; preds = %38, %36
  %41 = tail call i32 @get_log_level() #16
  %42 = icmp sgt i32 %41, 5
  br i1 %42, label %43, label %fed_mgr_is_origin_job.exit.thread

43:                                               ; preds = %40
  tail call void (i32, ptr, ...) @log_var(i32 noundef 6, ptr noundef nonnull @.str.183, ptr noundef nonnull %0) #16
  br label %fed_mgr_is_origin_job.exit.thread

fed_mgr_is_origin_job.exit:                       ; preds = %38
  %44 = lshr i32 %39, 26
  %45 = getelementptr inbounds nuw i8, ptr %35, i64 192
  %46 = load i32, ptr %45, align 8
  %.not1.i.not = icmp eq i32 %46, %44
  br i1 %.not1.i.not, label %fed_mgr_is_origin_job.exit.thread, label %47

fed_mgr_is_origin_job.exit.thread:                ; preds = %40, %43, %34, %fed_mgr_is_origin_job.exit
  tail call fastcc void @_add_remove_sibling_jobs(ptr noundef nonnull %0)
  br label %47

47:                                               ; preds = %_is_fed_job.exit, %19, %26, %fed_mgr_is_origin_job.exit.thread, %fed_mgr_is_origin_job.exit, %23, %14
  %.0 = phi i32 [ 7104, %26 ], [ 0, %fed_mgr_is_origin_job.exit.thread ], [ 0, %fed_mgr_is_origin_job.exit ], [ 7103, %23 ], [ -1, %14 ], [ 2073, %19 ], [ 2073, %_is_fed_job.exit ]
  ret i32 %.0
}